target datalayout = "e-m:e-p270:32:32-p271:32:32-p272:64:64-i64:64-i128:128-f80:128-n8:16:32:64-S128"
target triple = "x86_64-pc-linux-gnu"

%struct.wl_interface = type { ptr, i32, i32, ptr, i32, ptr }
%struct.xdg_activation_token_v1_listener = type { ptr }
%struct.SDL_WindowData = type { ptr, ptr, ptr, ptr, ptr, ptr, ptr, %union.anon, i32, i32, i32, i32, ptr, ptr, ptr, ptr, ptr, ptr, ptr, ptr, ptr, ptr, ptr, ptr, ptr, ptr, %struct.SDL_AtomicInt, ptr, i32, ptr, double, ptr, i32, i32, i32, i32, %struct.anon.3, %struct.anon.4, %struct.anon.5, %struct.anon.6, %struct.anon.7, %struct.anon.8, %struct.anon.9, i32, i32, i32, i64, i32, i32, i8, i8, i8, i8, i8, i8, i8, i8, i8, i8, i8, i8, i8, i8, i32, %struct.wl_list }
%union.anon = type { %struct.anon }
%struct.anon = type { ptr, %union.anon.0, i8 }
%union.anon.0 = type { %struct.anon.2 }
%struct.anon.2 = type { ptr, ptr }
%struct.SDL_AtomicInt = type { i32 }
%struct.anon.3 = type { double, double }
%struct.anon.4 = type { i32, i32, i32, i32 }
%struct.anon.5 = type { i32, i32, i32, i32 }
%struct.anon.6 = type { i32, i32 }
%struct.anon.7 = type { i32, i32 }
%struct.anon.8 = type { i32, i32 }
%struct.anon.9 = type { i32, i32, i8 }
%struct.wl_list = type { ptr, ptr }
%struct.SDL_Rect = type { i32, i32, i32, i32 }
%struct.SDL_VideoData = type { i8, ptr, i32, ptr, ptr, ptr, ptr, i32, %struct.anon.12, ptr, ptr, ptr, ptr, ptr, ptr, ptr, ptr, ptr, ptr, ptr, ptr, ptr, ptr, ptr, ptr, ptr, ptr, ptr, ptr, ptr, ptr, %struct.wl_list, ptr, ptr, ptr, ptr, i32, i32, i8, i8 }
%struct.anon.12 = type { ptr }
%struct.SDL_WaylandSeat = type { ptr, ptr, ptr, ptr, ptr, %struct.wl_list, i32, i32, %struct.anon.13, %struct.anon.15, %struct.anon.18, %struct.anon.19, %struct.anon.20 }
%struct.anon.13 = type { ptr, ptr, ptr, ptr, ptr, %struct.SDL_WaylandKeyboardRepeat, i64, i16, i16, i32, i8, %struct.anon.14 }
%struct.SDL_WaylandKeyboardRepeat = type { i32, i32, i32, i8, i8, i32, i64, i64, i64, i32, [8 x i8] }
%struct.anon.14 = type { ptr, ptr, ptr, ptr, i32, i32, i32, i32, i32, i32, i32, i32, i32, i32, i32 }
%struct.anon.15 = type { ptr, ptr, ptr, ptr, ptr, ptr, ptr, ptr, i64, i32, i32, %struct.SDL_Point, i32, %struct.anon.16, %struct.anon.17 }
%struct.SDL_Point = type { i32, i32 }
%struct.anon.16 = type { i32, float, i32, float, i64, i32 }
%struct.anon.17 = type { ptr, ptr, ptr, i64, i64, i32 }
%struct.anon.18 = type { ptr, ptr, i64, %struct.wl_list }
%struct.anon.19 = type { ptr, %struct.SDL_Rect, i8, i8 }
%struct.anon.20 = type { ptr, %struct.wl_list }

@WAYLAND_wl_proxy_get_version = external global ptr, align 8
@WAYLAND_wl_proxy_marshal_flags = external global ptr, align 8
@WAYLAND_wl_proxy_add_listener = external global ptr, align 8
@activation_listener_xdg = internal constant %struct.xdg_activation_token_v1_listener { ptr @handle_xdg_activation_done }, align 8
@xdg_activation_token_v1_interface = external constant %struct.wl_interface, align 8

; Function Attrs: inlinehint nounwind uwtable
define internal void @xdg_activation_token_v1_commit(ptr noundef %0) #4 {
  %2 = alloca ptr, align 8
  store ptr %0, ptr %2, align 8
  %3 = load ptr, ptr @WAYLAND_wl_proxy_marshal_flags, align 8
  %4 = load ptr, ptr %2, align 8
  %5 = load ptr, ptr @WAYLAND_wl_proxy_get_version, align 8
  %6 = load ptr, ptr %2, align 8
  %7 = call i32 %5(ptr noundef %6)
  %8 = call ptr (ptr, i32, ptr, i32, i32, ...) %3(ptr noundef %4, i32 noundef 3, ptr noundef null, i32 noundef %7, i32 noundef 0)
  ret void
}

; Function Attrs: inlinehint nounwind uwtable
define internal void @xdg_activation_token_v1_set_serial(ptr noundef %0, i32 noundef %1, ptr noundef %2) #4 {
  %4 = alloca ptr, align 8
  %5 = alloca i32, align 4
  %6 = alloca ptr, align 8
  store ptr %0, ptr %4, align 8
  store i32 %1, ptr %5, align 4
  store ptr %2, ptr %6, align 8
  %7 = load ptr, ptr @WAYLAND_wl_proxy_marshal_flags, align 8
  %8 = load ptr, ptr %4, align 8
  %9 = load ptr, ptr @WAYLAND_wl_proxy_get_version, align 8
  %10 = load ptr, ptr %4, align 8
  %11 = call i32 %9(ptr noundef %10)
  %12 = load i32, ptr %5, align 4
  %13 = load ptr, ptr %6, align 8
  %14 = call ptr (ptr, i32, ptr, i32, i32, ...) %7(ptr noundef %8, i32 noundef 0, ptr noundef null, i32 noundef %11, i32 noundef 0, i32 noundef %12, ptr noundef %13)
  ret void
}

; Function Attrs: inlinehint nounwind uwtable
define internal void @xdg_activation_token_v1_set_surface(ptr noundef %0, ptr noundef %1) #4 {
  %3 = alloca ptr, align 8
  %4 = alloca ptr, align 8
  store ptr %0, ptr %3, align 8
  store ptr %1, ptr %4, align 8
  %5 = load ptr, ptr @WAYLAND_wl_proxy_marshal_flags, align 8
  %6 = load ptr, ptr %3, align 8
  %7 = load ptr, ptr @WAYLAND_wl_proxy_get_version, align 8
  %8 = load ptr, ptr %3, align 8
  %9 = call i32 %7(ptr noundef %8)
  %10 = load ptr, ptr %4, align 8
  %11 = call ptr (ptr, i32, ptr, i32, i32, ...) %5(ptr noundef %6, i32 noundef 2, ptr noundef null, i32 noundef %9, i32 noundef 0, ptr noundef %10)
  ret void
}

; Function Attrs: inlinehint nounwind uwtable
define internal i32 @xdg_activation_token_v1_add_listener(ptr noundef %0, ptr noundef %1, ptr noundef %2) #4 {
  %4 = alloca ptr, align 8
  %5 = alloca ptr, align 8
  %6 = alloca ptr, align 8
  store ptr %0, ptr %4, align 8
  store ptr %1, ptr %5, align 8
  store ptr %2, ptr %6, align 8
  %7 = load ptr, ptr @WAYLAND_wl_proxy_add_listener, align 8
  %8 = load ptr, ptr %4, align 8
  %9 = load ptr, ptr %5, align 8
  %10 = load ptr, ptr %6, align 8
  %11 = call i32 %7(ptr noundef %8, ptr noundef %9, ptr noundef %10)
  ret i32 %11
}

; Function Attrs: inlinehint nounwind uwtable
define internal ptr @xdg_activation_v1_get_activation_token(ptr noundef %0) #4 {
  %2 = alloca ptr, align 8
  %3 = alloca ptr, align 8
  store ptr %0, ptr %2, align 8
  call void @llvm.lifetime.start.p0(i64 8, ptr %3) #10
  %4 = load ptr, ptr @WAYLAND_wl_proxy_marshal_flags, align 8
  %5 = load ptr, ptr %2, align 8
  %6 = load ptr, ptr @WAYLAND_wl_proxy_get_version, align 8
  %7 = load ptr, ptr %2, align 8
  %8 = call i32 %6(ptr noundef %7)
  %9 = call ptr (ptr, i32, ptr, i32, i32, ...) %4(ptr noundef %5, i32 noundef 1, ptr noundef @xdg_activation_token_v1_interface, i32 noundef %8, i32 noundef 0, ptr noundef null)
  store ptr %9, ptr %3, align 8
  %10 = load ptr, ptr %3, align 8
  call void @llvm.lifetime.end.p0(i64 8, ptr %3) #10
  ret ptr %10
}

; Function Attrs: inlinehint nounwind uwtable
define internal void @xdg_activation_token_v1_destroy(ptr noundef %0) #4 {
  %2 = alloca ptr, align 8
  store ptr %0, ptr %2, align 8
  %3 = load ptr, ptr @WAYLAND_wl_proxy_marshal_flags, align 8
  %4 = load ptr, ptr %2, align 8
  %5 = load ptr, ptr @WAYLAND_wl_proxy_get_version, align 8
  %6 = load ptr, ptr %2, align 8
  %7 = call i32 %5(ptr noundef %6)
  %8 = call ptr (ptr, i32, ptr, i32, i32, ...) %3(ptr noundef %4, i32 noundef 4, ptr noundef null, i32 noundef %7, i32 noundef 1)
  ret void
}

; Function Attrs: nounwind uwtable
define internal void @Wayland_activate_window(ptr noundef %0, ptr noundef %1, i1 noundef zeroext %2) #0 {
  %4 = alloca ptr, align 8
  %5 = alloca ptr, align 8
  %6 = alloca i8, align 1
  %7 = alloca ptr, align 8
  %8 = alloca ptr, align 8
  %9 = alloca ptr, align 8
  store ptr %0, ptr %4, align 8
  store ptr %1, ptr %5, align 8
  %10 = zext i1 %2 to i8
  store i8 %10, ptr %6, align 1
  call void @llvm.lifetime.start.p0(i64 8, ptr %7) #10
  %11 = load ptr, ptr %4, align 8
  %12 = getelementptr inbounds nuw %struct.SDL_VideoData, ptr %11, i32 0, i32 32
  %13 = load ptr, ptr %12, align 8
  store ptr %13, ptr %7, align 8
  call void @llvm.lifetime.start.p0(i64 8, ptr %8) #10
  store ptr null, ptr %8, align 8
  %14 = load ptr, ptr %7, align 8
  %15 = icmp ne ptr %14, null
  br i1 %15, label %16, label %29

16:                                               ; preds = %3
  %17 = load ptr, ptr %7, align 8
  %18 = getelementptr inbounds nuw %struct.SDL_WaylandSeat, ptr %17, i32 0, i32 8
  %19 = getelementptr inbounds nuw %struct.anon.13, ptr %18, i32 0, i32 3
  %20 = load ptr, ptr %19, align 8
  store ptr %20, ptr %8, align 8
  %21 = load ptr, ptr %8, align 8
  %22 = icmp ne ptr %21, null
  br i1 %22, label %28, label %23

23:                                               ; preds = %16
  %24 = load ptr, ptr %7, align 8
  %25 = getelementptr inbounds nuw %struct.SDL_WaylandSeat, ptr %24, i32 0, i32 9
  %26 = getelementptr inbounds nuw %struct.anon.15, ptr %25, i32 0, i32 6
  %27 = load ptr, ptr %26, align 8
  store ptr %27, ptr %8, align 8
  br label %28

28:                                               ; preds = %23, %16
  br label %29

29:                                               ; preds = %28, %3
  call void @llvm.lifetime.start.p0(i64 8, ptr %9) #10
  %30 = load ptr, ptr %8, align 8
  %31 = icmp ne ptr %30, null
  br i1 %31, label %32, label %36

32:                                               ; preds = %29
  %33 = load ptr, ptr %8, align 8
  %34 = getelementptr inbounds nuw %struct.SDL_WindowData, ptr %33, i32 0, i32 2
  %35 = load ptr, ptr %34, align 8
  br label %37

36:                                               ; preds = %29
  br label %37

37:                                               ; preds = %36, %32
  %38 = phi ptr [ %35, %32 ], [ null, %36 ]
  store ptr %38, ptr %9, align 8
  %39 = load ptr, ptr %4, align 8
  %40 = getelementptr inbounds nuw %struct.SDL_VideoData, ptr %39, i32 0, i32 17
  %41 = load ptr, ptr %40, align 8
  %42 = icmp ne ptr %41, null
  br i1 %42, label %43, label %96

43:                                               ; preds = %37
  %44 = load ptr, ptr %5, align 8
  %45 = getelementptr inbounds nuw %struct.SDL_WindowData, ptr %44, i32 0, i32 16
  %46 = load ptr, ptr %45, align 8
  %47 = icmp ne ptr %46, null
  br i1 %47, label %48, label %52

48:                                               ; preds = %43
  %49 = load ptr, ptr %5, align 8
  %50 = getelementptr inbounds nuw %struct.SDL_WindowData, ptr %49, i32 0, i32 16
  %51 = load ptr, ptr %50, align 8
  call void @xdg_activation_token_v1_destroy(ptr noundef %51)
  br label %52

52:                                               ; preds = %48, %43
  %53 = load ptr, ptr %4, align 8
  %54 = getelementptr inbounds nuw %struct.SDL_VideoData, ptr %53, i32 0, i32 17
  %55 = load ptr, ptr %54, align 8
  %56 = call ptr @xdg_activation_v1_get_activation_token(ptr noundef %55)
  %57 = load ptr, ptr %5, align 8
  %58 = getelementptr inbounds nuw %struct.SDL_WindowData, ptr %57, i32 0, i32 16
  store ptr %56, ptr %58, align 8
  %59 = load ptr, ptr %5, align 8
  %60 = getelementptr inbounds nuw %struct.SDL_WindowData, ptr %59, i32 0, i32 16
  %61 = load ptr, ptr %60, align 8
  %62 = load ptr, ptr %5, align 8
  %63 = call i32 @xdg_activation_token_v1_add_listener(ptr noundef %61, ptr noundef @activation_listener_xdg, ptr noundef %62)
  %64 = load ptr, ptr %9, align 8
  %65 = icmp ne ptr %64, null
  br i1 %65, label %66, label %71

66:                                               ; preds = %52
  %67 = load ptr, ptr %5, align 8
  %68 = getelementptr inbounds nuw %struct.SDL_WindowData, ptr %67, i32 0, i32 16
  %69 = load ptr, ptr %68, align 8
  %70 = load ptr, ptr %9, align 8
  call void @xdg_activation_token_v1_set_surface(ptr noundef %69, ptr noundef %70)
  br label %71

71:                                               ; preds = %66, %52
  %72 = load i8, ptr %6, align 1, !range !5, !noundef !6
  %73 = trunc i8 %72 to i1
  br i1 %73, label %74, label %92

74:                                               ; preds = %71
  %75 = load ptr, ptr %7, align 8
  %76 = icmp ne ptr %75, null
  br i1 %76, label %77, label %92

77:                                               ; preds = %74
  %78 = load ptr, ptr %7, align 8
  %79 = getelementptr inbounds nuw %struct.SDL_WaylandSeat, ptr %78, i32 0, i32 1
  %80 = load ptr, ptr %79, align 8
  %81 = icmp ne ptr %80, null
  br i1 %81, label %82, label %92

82:                                               ; preds = %77
  %83 = load ptr, ptr %5, align 8
  %84 = getelementptr inbounds nuw %struct.SDL_WindowData, ptr %83, i32 0, i32 16
  %85 = load ptr, ptr %84, align 8
  %86 = load ptr, ptr %7, align 8
  %87 = getelementptr inbounds nuw %struct.SDL_WaylandSeat, ptr %86, i32 0, i32 6
  %88 = load i32, ptr %87, align 8
  %89 = load ptr, ptr %7, align 8
  %90 = getelementptr inbounds nuw %struct.SDL_WaylandSeat, ptr %89, i32 0, i32 1
  %91 = load ptr, ptr %90, align 8
  call void @xdg_activation_token_v1_set_serial(ptr noundef %85, i32 noundef %88, ptr noundef %91)
  br label %92

92:                                               ; preds = %82, %77, %74, %71
  %93 = load ptr, ptr %5, align 8
  %94 = getelementptr inbounds nuw %struct.SDL_WindowData, ptr %93, i32 0, i32 16
  %95 = load ptr, ptr %94, align 8
  call void @xdg_activation_token_v1_commit(ptr noundef %95)
  br label %96

96:                                               ; preds = %92, %37
  call void @llvm.lifetime.end.p0(i64 8, ptr %9) #10
  call void @llvm.lifetime.end.p0(i64 8, ptr %8) #10
  call void @llvm.lifetime.end.p0(i64 8, ptr %7) #10
  ret void
}