; Function Attrs: nounwind uwtable
define internal fastcc void @Wayland_activate_window(ptr noundef readonly captures(none) %0, ptr noundef %1, i1 noundef zeroext %2) unnamed_addr #0 {
  %4 = getelementptr inbounds nuw i8, ptr %0, i64 264
  %5 = load ptr, ptr %4, align 8
  %6 = icmp ne ptr %5, null
  br i1 %6, label %7, label %.thread

7:                                                ; preds = %3
  %8 = getelementptr inbounds nuw i8, ptr %5, i64 88
  %9 = load ptr, ptr %8, align 8
  %.not = icmp eq ptr %9, null
  br i1 %.not, label %10, label %.thread36

10:                                               ; preds = %7
  %11 = getelementptr inbounds nuw i8, ptr %5, i64 320
  %12 = load ptr, ptr %11, align 8
  %.not29 = icmp eq ptr %12, null
  br i1 %.not29, label %.thread, label %.thread36

.thread36:                                        ; preds = %7, %10
  %.039 = phi ptr [ %12, %10 ], [ %9, %7 ]
  %13 = getelementptr inbounds nuw i8, ptr %.039, i64 16
  %14 = load ptr, ptr %13, align 8
  br label %.thread

.thread:                                          ; preds = %3, %10, %.thread36
  %15 = phi ptr [ %14, %.thread36 ], [ null, %10 ], [ null, %3 ]
  %16 = getelementptr inbounds nuw i8, ptr %0, i64 136
  %17 = load ptr, ptr %16, align 8
  %.not30 = icmp eq ptr %17, null
  br i1 %.not30, label %58, label %18

18:                                               ; preds = %.thread
  %19 = getelementptr inbounds nuw i8, ptr %1, i64 136
  %20 = load ptr, ptr %19, align 8
  %.not31 = icmp eq ptr %20, null
  br i1 %.not31, label %26, label %21

21:                                               ; preds = %18
  %22 = load ptr, ptr @WAYLAND_wl_proxy_marshal_flags, align 8
  %23 = load ptr, ptr @WAYLAND_wl_proxy_get_version, align 8
  %24 = tail call i32 %23(ptr noundef nonnull %20) #15
  %25 = tail call ptr (ptr, i32, ptr, i32, i32, ...) %22(ptr noundef nonnull %20, i32 noundef 4, ptr noundef null, i32 noundef %24, i32 noundef 1) #15
  %.pre = load ptr, ptr %16, align 8
  br label %26

26:                                               ; preds = %21, %18
  %27 = phi ptr [ %.pre, %21 ], [ %17, %18 ]
  %28 = load ptr, ptr @WAYLAND_wl_proxy_marshal_flags, align 8
  %29 = load ptr, ptr @WAYLAND_wl_proxy_get_version, align 8
  %30 = tail call i32 %29(ptr noundef %27) #15
  %31 = tail call ptr (ptr, i32, ptr, i32, i32, ...) %28(ptr noundef %27, i32 noundef 1, ptr noundef nonnull @xdg_activation_token_v1_interface, i32 noundef %30, i32 noundef 0, ptr noundef null) #15
  store ptr %31, ptr %19, align 8
  %32 = load ptr, ptr @WAYLAND_wl_proxy_add_listener, align 8
  %33 = tail call i32 %32(ptr noundef %31, ptr noundef nonnull @activation_listener_xdg, ptr noundef nonnull %1) #15
  %.not32 = icmp eq ptr %15, null
  br i1 %.not32, label %40, label %34

34:                                               ; preds = %26
  %35 = load ptr, ptr %19, align 8
  %36 = load ptr, ptr @WAYLAND_wl_proxy_marshal_flags, align 8
  %37 = load ptr, ptr @WAYLAND_wl_proxy_get_version, align 8
  %38 = tail call i32 %37(ptr noundef %35) #15
  %39 = tail call ptr (ptr, i32, ptr, i32, i32, ...) %36(ptr noundef %35, i32 noundef 2, ptr noundef null, i32 noundef %38, i32 noundef 0, ptr noundef nonnull %15) #15
  br label %40

40:                                               ; preds = %34, %26
  %or.cond = and i1 %2, %6
  br i1 %or.cond, label %41, label %52

41:                                               ; preds = %40
  %42 = getelementptr inbounds nuw i8, ptr %5, i64 8
  %43 = load ptr, ptr %42, align 8
  %.not33 = icmp eq ptr %43, null
  br i1 %.not33, label %52, label %44

44:                                               ; preds = %41
  %45 = load ptr, ptr %19, align 8
  %46 = getelementptr inbounds nuw i8, ptr %5, i64 56
  %47 = load i32, ptr %46, align 8
  %48 = load ptr, ptr @WAYLAND_wl_proxy_marshal_flags, align 8
  %49 = load ptr, ptr @WAYLAND_wl_proxy_get_version, align 8
  %50 = tail call i32 %49(ptr noundef %45) #15
  %51 = tail call ptr (ptr, i32, ptr, i32, i32, ...) %48(ptr noundef %45, i32 noundef 0, ptr noundef null, i32 noundef %50, i32 noundef 0, i32 noundef %47, ptr noundef nonnull %43) #15
  br label %52

52:                                               ; preds = %44, %41, %40
  %53 = load ptr, ptr %19, align 8
  %54 = load ptr, ptr @WAYLAND_wl_proxy_marshal_flags, align 8
  %55 = load ptr, ptr @WAYLAND_wl_proxy_get_version, align 8
  %56 = tail call i32 %55(ptr noundef %53) #15
  %57 = tail call ptr (ptr, i32, ptr, i32, i32, ...) %54(ptr noundef %53, i32 noundef 3, ptr noundef null, i32 noundef %56, i32 noundef 0) #15
  br label %58

58:                                               ; preds = %52, %.thread
  ret void
}